; Function Attrs: mustprogress nounwind uwtable
define dso_local void @_ZNK4node12SnapshotData6ToFileEP8_IO_FILE(ptr noundef nonnull align 8 dereferenceable(416) %this, ptr nocapture noundef %out) local_unnamed_addr #3 align 2 {
entry:
  %sink = alloca %"class.std::vector.28", align 8
  call void @_ZNK4node12SnapshotData6ToBlobEv(ptr nonnull sret(%"class.std::vector.28") align 8 %sink, ptr noundef nonnull align 8 dereferenceable(416) %this)
  %0 = load ptr, ptr %sink, align 8
  %_M_finish.i = getelementptr inbounds i8, ptr %sink, i64 8
  %1 = load ptr, ptr %_M_finish.i, align 8
  %sub.ptr.lhs.cast.i = ptrtoint ptr %1 to i64
  %sub.ptr.rhs.cast.i = ptrtoint ptr %0 to i64
  %sub.ptr.sub.i = sub i64 %sub.ptr.lhs.cast.i, %sub.ptr.rhs.cast.i
  %call3 = call i64 @fwrite(ptr noundef %0, i64 noundef %sub.ptr.sub.i, i64 noundef 1, ptr noundef %out)
  %cmp.not = icmp eq i64 %call3, 1
  br i1 %cmp.not, label %do.body9, label %do.body6

do.body6:                                         ; preds = %entry
  call void @_ZN4node6AssertERKNS_13AssertionInfoE(ptr noundef nonnull align 8 dereferenceable(24) @_ZZNK4node12SnapshotData6ToFileEP8_IO_FILEE4args) #23
  call void @abort() #25
  unreachable

do.body9:                                         ; preds = %entry
  %call10 = call i32 @fflush(ptr noundef %out)
  %cmp11.not = icmp eq i32 %call10, 0
  br i1 %cmp11.not, label %do.end21, label %do.body16

do.body16:                                        ; preds = %do.body9
  call void @_ZN4node6AssertERKNS_13AssertionInfoE(ptr noundef nonnull align 8 dereferenceable(24) @_ZZNK4node12SnapshotData6ToFileEP8_IO_FILEE4args_0) #23
  call void @abort() #25
  unreachable

do.end21:                                         ; preds = %do.body9
  %2 = load ptr, ptr %sink, align 8
  %tobool.not.i.i.i = icmp eq ptr %2, null
  br i1 %tobool.not.i.i.i, label %_ZNSt6vectorIcSaIcEED2Ev.exit, label %if.then.i.i.i

if.then.i.i.i:                                    ; preds = %do.end21
  call void @_ZdlPv(ptr noundef nonnull %2) #27
  br label %_ZNSt6vectorIcSaIcEED2Ev.exit

_ZNSt6vectorIcSaIcEED2Ev.exit:                    ; preds = %do.end21, %if.then.i.i.i
  call void @_ZNSaIcED2Ev(ptr noundef nonnull align 1 dereferenceable(1) %sink) #23
  ret void
}